; Function Attrs: mustprogress uwtable
define void @_ZN2cv3dnn14dnn4_v2024122317readNetFromTFLiteERKSt6vectorIhSaIhEE(ptr dead_on_unwind noalias writable sret(%"class.cv::dnn::dnn4_v20241223::Net") align 8 %0, ptr noundef nonnull readonly align 8 captures(none) dereferenceable(24) %1) local_unnamed_addr #3 {
  %3 = load ptr, ptr %1, align 8, !tbaa !454
  %4 = getelementptr inbounds nuw i8, ptr %1, i64 8
  %5 = load ptr, ptr %4, align 8, !tbaa !456
  %6 = ptrtoint ptr %5 to i64
  %7 = ptrtoint ptr %3 to i64
  %8 = sub i64 %6, %7
  tail call void @_ZN2cv3dnn14dnn4_v2024122317readNetFromTFLiteEPKcm(ptr dead_on_unwind writable sret(%"class.cv::dnn::dnn4_v20241223::Net") align 8 %0, ptr noundef %3, i64 noundef %8)
  ret void
}